; Function Attrs: mustprogress nounwind uwtable
define void @_ZN7rocksdb28IteratorSeekQueryTraceRecordD2Ev(ptr noundef nonnull align 8 dereferenceable(312) %this) unnamed_addr #6 align 2 personality ptr @__gxx_personality_v0 {
entry:
  store ptr getelementptr inbounds ({ [12 x ptr] }, ptr @_ZTVN7rocksdb28IteratorSeekQueryTraceRecordE, i64 0, i32 0, i64 2), ptr %this, align 8
  %key_ = getelementptr inbounds i8, ptr %this, i64 216
  store ptr @.str, ptr %key_, align 8
  %size_.i = getelementptr inbounds i8, ptr %this, i64 224
  store i64 0, ptr %size_.i, align 8
  %self_space_.i = getelementptr inbounds i8, ptr %this, i64 264
  tail call void @_ZNSt7__cxx1112basic_stringIcSt11char_traitsIcESaIcEED1Ev(ptr noundef nonnull align 8 dereferenceable(32) %self_space_.i) #17
  %0 = getelementptr inbounds i8, ptr %this, i64 232
  tail call void @_ZN7rocksdb9CleanableD2Ev(ptr noundef nonnull align 8 dereferenceable(32) %0) #17
  store ptr getelementptr inbounds ({ [9 x ptr] }, ptr @_ZTVN7rocksdb24IteratorQueryTraceRecordE, i64 0, i32 0, i64 2), ptr %this, align 8
  %self_space_.i.i = getelementptr inbounds i8, ptr %this, i64 160
  tail call void @_ZNSt7__cxx1112basic_stringIcSt11char_traitsIcESaIcEED1Ev(ptr noundef nonnull align 8 dereferenceable(32) %self_space_.i.i) #17
  %1 = getelementptr inbounds i8, ptr %this, i64 128
  tail call void @_ZN7rocksdb9CleanableD2Ev(ptr noundef nonnull align 8 dereferenceable(32) %1) #17
  %self_space_.i1.i = getelementptr inbounds i8, ptr %this, i64 64
  tail call void @_ZNSt7__cxx1112basic_stringIcSt11char_traitsIcESaIcEED1Ev(ptr noundef nonnull align 8 dereferenceable(32) %self_space_.i1.i) #17
  %2 = getelementptr inbounds i8, ptr %this, i64 32
  tail call void @_ZN7rocksdb9CleanableD2Ev(ptr noundef nonnull align 8 dereferenceable(32) %2) #17
  ret void
}